; Function Attrs: mustprogress uwtable
define noundef zeroext i1 @_ZNK5Ipopt22LowRankUpdateSymMatrix19HasValidNumbersImplEv(ptr noundef nonnull readonly align 8 captures(none) dereferenceable(112) %0) unnamed_addr #1 align 2 {
  %2 = getelementptr inbounds nuw i8, ptr %0, i64 88
  %3 = load ptr, ptr %2, align 8, !tbaa !34
  %4 = getelementptr inbounds nuw i8, ptr %3, i64 200
  %5 = load i32, ptr %4, align 8, !tbaa !85
  %6 = getelementptr inbounds nuw i8, ptr %3, i64 48
  %7 = load i32, ptr %6, align 8, !tbaa !49
  %.not.i = icmp eq i32 %5, %7
  br i1 %.not.i, label %._crit_edge.i, label %_ZNK5Ipopt6Vector15HasValidNumbersEv.exit

._crit_edge.i:                                    ; preds = %1
  %.phi.trans.insert.i = getelementptr inbounds nuw i8, ptr %3, i64 204
  %.pre.i = load i8, ptr %.phi.trans.insert.i, align 4, !tbaa !86, !range !72
  %8 = trunc nuw i8 %.pre.i to i1
  br i1 %8, label %16, label %27

_ZNK5Ipopt6Vector15HasValidNumbersEv.exit:        ; preds = %1
  %9 = load ptr, ptr %3, align 8, !tbaa !8
  %10 = getelementptr inbounds nuw i8, ptr %9, i64 216
  %11 = load ptr, ptr %10, align 8
  %12 = tail call noundef zeroext i1 %11(ptr noundef nonnull align 8 dereferenceable(205) %3)
  %13 = getelementptr inbounds nuw i8, ptr %3, i64 204
  %14 = zext i1 %12 to i8
  store i8 %14, ptr %13, align 4, !tbaa !86
  %15 = load i32, ptr %6, align 8, !tbaa !49
  store i32 %15, ptr %4, align 8, !tbaa !85
  br i1 %12, label %16, label %27

16:                                               ; preds = %._crit_edge.i, %_ZNK5Ipopt6Vector15HasValidNumbersEv.exit
  %17 = getelementptr inbounds nuw i8, ptr %0, i64 96
  %18 = load ptr, ptr %17, align 8, !tbaa !31
  %.not = icmp eq ptr %18, null
  br i1 %.not, label %21, label %19

19:                                               ; preds = %16
  %20 = tail call noundef zeroext i1 @_ZNK5Ipopt6Matrix15HasValidNumbersEv(ptr noundef nonnull align 8 dereferenceable(69) %18)
  br i1 %20, label %21, label %27

21:                                               ; preds = %19, %16
  %22 = getelementptr inbounds nuw i8, ptr %0, i64 104
  %23 = load ptr, ptr %22, align 8, !tbaa !31
  %.not2 = icmp eq ptr %23, null
  br i1 %.not2, label %26, label %24

24:                                               ; preds = %21
  %25 = tail call noundef zeroext i1 @_ZNK5Ipopt6Matrix15HasValidNumbersEv(ptr noundef nonnull align 8 dereferenceable(69) %23)
  br i1 %25, label %26, label %27

26:                                               ; preds = %24, %21
  br label %27

27:                                               ; preds = %._crit_edge.i, %24, %19, %_ZNK5Ipopt6Vector15HasValidNumbersEv.exit, %26
  %.0 = phi i1 [ true, %26 ], [ false, %_ZNK5Ipopt6Vector15HasValidNumbersEv.exit ], [ false, %19 ], [ false, %24 ], [ false, %._crit_edge.i ]
  ret i1 %.0
}